; Function Attrs: null_pointer_is_valid sspstrong uwtable
define internal i32 @dissect_xnap_NG_RANTraceID(ptr noundef %0, i32 noundef %1, ptr noundef %2, ptr noundef %3, i32 noundef %4) #0 {
  %6 = alloca ptr, align 8
  call void @llvm.lifetime.start.p0(i64 8, ptr nonnull %6) #9
  %7 = call i32 @dissect_per_octet_string(ptr noundef %0, i32 noundef %1, ptr noundef %2, ptr noundef %3, i32 noundef %4, i32 noundef 8, i32 noundef 8, i1 noundef zeroext false, ptr noundef nonnull %6)
  %8 = load ptr, ptr %6, align 8
  %.not = icmp eq ptr %8, null
  br i1 %.not, label %24, label %9

9:                                                ; preds = %5
  %10 = getelementptr inbounds nuw i8, ptr %2, i64 24
  %11 = load ptr, ptr %10, align 8
  %12 = load i32, ptr @ett_xnap_NG_RANTraceID, align 4
  %13 = call ptr @proto_item_add_subtree(ptr noundef %11, i32 noundef %12)
  %14 = load ptr, ptr %6, align 8
  %15 = getelementptr inbounds nuw i8, ptr %2, i64 16
  %16 = load ptr, ptr %15, align 8
  %17 = call i32 @dissect_e212_mcc_mnc(ptr noundef %14, ptr noundef %16, ptr noundef %13, i32 noundef 0, i32 noundef 0, i1 noundef zeroext false)
  %18 = load i32, ptr @hf_xnap_NG_RANTraceID_TraceID, align 4
  %19 = load ptr, ptr %6, align 8
  %20 = call ptr @proto_tree_add_item(ptr noundef %13, i32 noundef %18, ptr noundef %19, i32 noundef 3, i32 noundef 3, i32 noundef 0)
  %21 = load i32, ptr @hf_xnap_NG_RANTraceID_TraceRecordingSessionReference, align 4
  %22 = load ptr, ptr %6, align 8
  %23 = call ptr @proto_tree_add_item(ptr noundef %13, i32 noundef %21, ptr noundef %22, i32 noundef 6, i32 noundef 2, i32 noundef 0)
  br label %24

24:                                               ; preds = %5, %9
  call void @llvm.lifetime.end.p0(i64 8, ptr nonnull %6) #9
  ret i32 %7
}